target datalayout = "e-m:e-p270:32:32-p271:32:32-p272:64:64-i64:64-i128:128-f80:128-n8:16:32:64-S128"
target triple = "x86_64-pc-linux-gnu"

%"class.std::logic_error" = type { %"class.std::exception", %"class.std::__1::__libcpp_refstring" }
%"class.std::exception" = type { ptr }
%"class.std::__1::__libcpp_refstring" = type { ptr }
%"struct.std::__1::__refstring_imp::(anonymous namespace)::_Rep_base" = type { i64, i64, i32 }
%"class.std::__1::basic_string" = type { %"union.std::__1::basic_string<char>::__rep" }
%"union.std::__1::basic_string<char>::__rep" = type { %"struct.std::__1::basic_string<char>::__long" }
%"struct.std::__1::basic_string<char>::__long" = type { %struct.anon.0, i64, ptr }
%struct.anon.0 = type { i64 }
%"struct.std::__1::basic_string<char>::__short" = type { %struct.anon, [23 x i8] }
%struct.anon = type { i8 }

@_ZTVSt11logic_error = available_externally unnamed_addr constant { [5 x ptr] } { [5 x ptr] [ptr null, ptr @_ZTISt11logic_error, ptr @_ZNSt11logic_errorD1Ev, ptr @_ZNSt11logic_errorD0Ev, ptr @_ZNKSt11logic_error4whatEv] }, align 8
@_ZTVSt9exception = available_externally unnamed_addr constant { [5 x ptr] } { [5 x ptr] [ptr null, ptr @_ZTISt9exception, ptr @_ZNSt9exceptionD1Ev, ptr @_ZNSt9exceptionD0Ev, ptr @_ZNKSt9exception4whatEv] }, align 8

; Function Attrs: mustprogress nounwind uwtable
define linkonce_odr hidden noundef ptr @_ZNSt3__114pointer_traitsIPKcE10pointer_toB8ne210000ERS1_(ptr noundef nonnull align 1 dereferenceable(1) %0) #1 comdat align 2 {
  %2 = alloca ptr, align 8
  store ptr %0, ptr %2, align 8, !tbaa !17
  %3 = load ptr, ptr %2, align 8, !tbaa !17
  ret ptr %3
}

; Function Attrs: mustprogress nounwind uwtable
define linkonce_odr hidden noundef ptr @_ZNKSt3__112basic_stringIcNS_11char_traitsIcEENS_9allocatorIcEEE19__get_short_pointerB8ne210000Ev(ptr noundef nonnull align 8 dereferenceable(24) %0) #1 comdat align 2 {
  %2 = alloca ptr, align 8
  store ptr %0, ptr %2, align 8, !tbaa !9
  %3 = load ptr, ptr %2, align 8
  %4 = getelementptr inbounds nuw %"class.std::__1::basic_string", ptr %3, i32 0, i32 0
  %5 = getelementptr inbounds nuw %"struct.std::__1::basic_string<char>::__short", ptr %4, i32 0, i32 1
  %6 = getelementptr inbounds [23 x i8], ptr %5, i64 0, i64 0
  %7 = call noundef ptr @_ZNSt3__114pointer_traitsIPKcE10pointer_toB8ne210000ERS1_(ptr noundef nonnull align 1 dereferenceable(1) %6) #12
  ret ptr %7
}

; Function Attrs: mustprogress nounwind uwtable
define linkonce_odr hidden noundef ptr @_ZNKSt3__112basic_stringIcNS_11char_traitsIcEENS_9allocatorIcEEE18__get_long_pointerB8ne210000Ev(ptr noundef nonnull align 8 dereferenceable(24) %0) #1 comdat align 2 {
  %2 = alloca ptr, align 8
  store ptr %0, ptr %2, align 8, !tbaa !9
  %3 = load ptr, ptr %2, align 8
  %4 = getelementptr inbounds nuw %"class.std::__1::basic_string", ptr %3, i32 0, i32 0
  %5 = getelementptr inbounds nuw %"struct.std::__1::basic_string<char>::__long", ptr %4, i32 0, i32 2
  %6 = load ptr, ptr %5, align 8, !tbaa !36
  ret ptr %6
}

; Function Attrs: mustprogress nounwind uwtable
define linkonce_odr hidden noundef zeroext i1 @_ZNKSt3__112basic_stringIcNS_11char_traitsIcEENS_9allocatorIcEEE9__is_longB8ne210000Ev(ptr noundef nonnull align 8 dereferenceable(24) %0) #1 comdat align 2 {
  %2 = alloca ptr, align 8
  store ptr %0, ptr %2, align 8, !tbaa !9
  %3 = load ptr, ptr %2, align 8
  %4 = getelementptr inbounds nuw %"class.std::__1::basic_string", ptr %3, i32 0, i32 0
  %5 = getelementptr inbounds nuw %"struct.std::__1::basic_string<char>::__short", ptr %4, i32 0, i32 0
  %6 = load i8, ptr %5, align 8
  %7 = and i8 %6, 1
  %8 = icmp ne i8 %7, 0
  ret i1 %8
}

; Function Attrs: mustprogress nounwind uwtable
define linkonce_odr hidden noundef ptr @_ZNSt3__112__to_addressB8ne210000IKcEEPT_S3_(ptr noundef %0) #1 comdat {
  %2 = alloca ptr, align 8
  store ptr %0, ptr %2, align 8, !tbaa !17
  %3 = load ptr, ptr %2, align 8, !tbaa !17
  ret ptr %3
}

; Function Attrs: mustprogress nounwind uwtable
define linkonce_odr hidden noundef ptr @_ZNKSt3__112basic_stringIcNS_11char_traitsIcEENS_9allocatorIcEEE13__get_pointerB8ne210000Ev(ptr noundef nonnull align 8 dereferenceable(24) %0) #1 comdat align 2 {
  %2 = alloca ptr, align 8
  store ptr %0, ptr %2, align 8, !tbaa !9
  %3 = load ptr, ptr %2, align 8
  %4 = call noundef zeroext i1 @_ZNKSt3__112basic_stringIcNS_11char_traitsIcEENS_9allocatorIcEEE9__is_longB8ne210000Ev(ptr noundef nonnull align 8 dereferenceable(24) %3) #12
  br i1 %4, label %5, label %7

5:                                                ; preds = %1
  %6 = call noundef ptr @_ZNKSt3__112basic_stringIcNS_11char_traitsIcEENS_9allocatorIcEEE18__get_long_pointerB8ne210000Ev(ptr noundef nonnull align 8 dereferenceable(24) %3) #12
  br label %9

7:                                                ; preds = %1
  %8 = call noundef ptr @_ZNKSt3__112basic_stringIcNS_11char_traitsIcEENS_9allocatorIcEEE19__get_short_pointerB8ne210000Ev(ptr noundef nonnull align 8 dereferenceable(24) %3) #12
  br label %9

9:                                                ; preds = %7, %5
  %10 = phi ptr [ %6, %5 ], [ %8, %7 ]
  ret ptr %10
}

; Function Attrs: inlinehint mustprogress nounwind uwtable
define internal noundef ptr @_ZNSt3__115__refstring_imp12_GLOBAL__N_113data_from_repB8ne210000EPNS1_9_Rep_baseE(ptr noundef %0) #4 {
  %2 = alloca ptr, align 8
  %3 = alloca ptr, align 8
  store ptr %0, ptr %2, align 8, !tbaa !21
  call void @llvm.lifetime.start.p0(i64 8, ptr %3) #12
  %4 = load ptr, ptr %2, align 8, !tbaa !21
  store ptr %4, ptr %3, align 8, !tbaa !17
  %5 = load ptr, ptr %3, align 8, !tbaa !17
  %6 = getelementptr inbounds nuw i8, ptr %5, i64 24
  call void @llvm.lifetime.end.p0(i64 8, ptr %3) #12
  ret ptr %6
}

; Function Attrs: mustprogress nounwind uwtable
define linkonce_odr hidden noundef ptr @_ZNKSt3__112basic_stringIcNS_11char_traitsIcEENS_9allocatorIcEEE4dataB8ne210000Ev(ptr noundef nonnull align 8 dereferenceable(24) %0) #1 comdat align 2 {
  %2 = alloca ptr, align 8
  store ptr %0, ptr %2, align 8, !tbaa !9
  %3 = load ptr, ptr %2, align 8
  %4 = call noundef ptr @_ZNKSt3__112basic_stringIcNS_11char_traitsIcEENS_9allocatorIcEEE13__get_pointerB8ne210000Ev(ptr noundef nonnull align 8 dereferenceable(24) %3) #12
  %5 = call noundef ptr @_ZNSt3__112__to_addressB8ne210000IKcEEPT_S3_(ptr noundef %4) #12
  ret ptr %5
}

; Function Attrs: inlinehint mustprogress uwtable
define linkonce_odr hidden void @_ZNSt3__118__libcpp_refstringC2B8ne210000EPKc(ptr noundef nonnull align 8 dereferenceable(8) %0, ptr noundef %1) unnamed_addr #2 comdat align 2 {
  %3 = alloca ptr, align 8
  %4 = alloca ptr, align 8
  %5 = alloca i64, align 8
  %6 = alloca ptr, align 8
  %7 = alloca ptr, align 8
  store ptr %0, ptr %3, align 8, !tbaa !15
  store ptr %1, ptr %4, align 8, !tbaa !17
  %8 = load ptr, ptr %3, align 8
  call void @llvm.lifetime.start.p0(i64 8, ptr %5) #12
  %9 = load ptr, ptr %4, align 8, !tbaa !17
  %10 = call i64 @strlen(ptr noundef %9) #13
  store i64 %10, ptr %5, align 8, !tbaa !19
  call void @llvm.lifetime.start.p0(i64 8, ptr %6) #12
  %11 = load i64, ptr %5, align 8, !tbaa !19
  %12 = add i64 24, %11
  %13 = add i64 %12, 1
  %14 = call noalias noundef nonnull ptr @_Znwm(i64 noundef %13) #14
  store ptr %14, ptr %6, align 8, !tbaa !21
  %15 = load i64, ptr %5, align 8, !tbaa !19
  %16 = load ptr, ptr %6, align 8, !tbaa !21
  %17 = getelementptr inbounds nuw %"struct.std::__1::__refstring_imp::(anonymous namespace)::_Rep_base", ptr %16, i32 0, i32 0
  store i64 %15, ptr %17, align 8, !tbaa !23
  %18 = load i64, ptr %5, align 8, !tbaa !19
  %19 = load ptr, ptr %6, align 8, !tbaa !21
  %20 = getelementptr inbounds nuw %"struct.std::__1::__refstring_imp::(anonymous namespace)::_Rep_base", ptr %19, i32 0, i32 1
  store i64 %18, ptr %20, align 8, !tbaa !26
  %21 = load ptr, ptr %6, align 8, !tbaa !21
  %22 = getelementptr inbounds nuw %"struct.std::__1::__refstring_imp::(anonymous namespace)::_Rep_base", ptr %21, i32 0, i32 2
  store i32 0, ptr %22, align 8, !tbaa !27
  call void @llvm.lifetime.start.p0(i64 8, ptr %7) #12
  %23 = load ptr, ptr %6, align 8, !tbaa !21
  %24 = call noundef ptr @_ZNSt3__115__refstring_imp12_GLOBAL__N_113data_from_repB8ne210000EPNS1_9_Rep_baseE(ptr noundef %23) #12
  store ptr %24, ptr %7, align 8, !tbaa !17
  %25 = load ptr, ptr %7, align 8, !tbaa !17
  %26 = load ptr, ptr %4, align 8, !tbaa !17
  %27 = load i64, ptr %5, align 8, !tbaa !19
  %28 = add i64 %27, 1
  call void @llvm.memcpy.p0.p0.i64(ptr align 1 %25, ptr align 1 %26, i64 %28, i1 false)
  %29 = load ptr, ptr %7, align 8, !tbaa !17
  %30 = getelementptr inbounds nuw %"class.std::__1::__libcpp_refstring", ptr %8, i32 0, i32 0
  store ptr %29, ptr %30, align 8, !tbaa !28
  call void @llvm.lifetime.end.p0(i64 8, ptr %7) #12
  call void @llvm.lifetime.end.p0(i64 8, ptr %6) #12
  call void @llvm.lifetime.end.p0(i64 8, ptr %5) #12
  ret void
}

; Function Attrs: mustprogress nounwind uwtable
define linkonce_odr hidden noundef ptr @_ZNKSt3__112basic_stringIcNS_11char_traitsIcEENS_9allocatorIcEEE5c_strB8ne210000Ev(ptr noundef nonnull align 8 dereferenceable(24) %0) #1 comdat align 2 {
  %2 = alloca ptr, align 8
  store ptr %0, ptr %2, align 8, !tbaa !9
  %3 = load ptr, ptr %2, align 8
  %4 = call noundef ptr @_ZNKSt3__112basic_stringIcNS_11char_traitsIcEENS_9allocatorIcEEE4dataB8ne210000Ev(ptr noundef nonnull align 8 dereferenceable(24) %3) #12
  ret ptr %4
}

; Function Attrs: mustprogress nounwind uwtable
define linkonce_odr hidden void @_ZNSt9exceptionC2B8ne210000Ev(ptr noundef nonnull align 8 dereferenceable(8) %0) unnamed_addr #1 comdat align 2 {
  %2 = alloca ptr, align 8
  store ptr %0, ptr %2, align 8, !tbaa !13
  %3 = load ptr, ptr %2, align 8
  store ptr getelementptr inbounds inrange(-16, 24) ({ [5 x ptr] }, ptr @_ZTVSt9exception, i32 0, i32 0, i32 2), ptr %3, align 8, !tbaa !11
  ret void
}

; Function Attrs: mustprogress uwtable
define dso_local void @_ZNSt11logic_errorC2ERKNSt3__112basic_stringIcNS0_11char_traitsIcEENS0_9allocatorIcEEEE(ptr noundef nonnull align 8 dereferenceable(16) %0, ptr noundef nonnull align 8 dereferenceable(24) %1) unnamed_addr #0 align 2 personality ptr @__gxx_personality_v0 {
  %3 = alloca ptr, align 8
  %4 = alloca ptr, align 8
  %5 = alloca ptr, align 8
  %6 = alloca i32, align 4
  store ptr %0, ptr %3, align 8, !tbaa !4
  store ptr %1, ptr %4, align 8, !tbaa !9
  %7 = load ptr, ptr %3, align 8
  call void @_ZNSt9exceptionC2B8ne210000Ev(ptr noundef nonnull align 8 dereferenceable(8) %7) #12
  store ptr getelementptr inbounds inrange(-16, 24) ({ [5 x ptr] }, ptr @_ZTVSt11logic_error, i32 0, i32 0, i32 2), ptr %7, align 8, !tbaa !11
  %8 = getelementptr inbounds nuw %"class.std::logic_error", ptr %7, i32 0, i32 1
  %9 = load ptr, ptr %4, align 8, !tbaa !9
  %10 = call noundef ptr @_ZNKSt3__112basic_stringIcNS_11char_traitsIcEENS_9allocatorIcEEE5c_strB8ne210000Ev(ptr noundef nonnull align 8 dereferenceable(24) %9) #12
  invoke void @_ZNSt3__118__libcpp_refstringC2B8ne210000EPKc(ptr noundef nonnull align 8 dereferenceable(8) %8, ptr noundef %10)
          to label %11 unwind label %12

11:                                               ; preds = %2
  ret void

12:                                               ; preds = %2
  %13 = landingpad { ptr, i32 }
          cleanup
  %14 = extractvalue { ptr, i32 } %13, 0
  store ptr %14, ptr %5, align 8
  %15 = extractvalue { ptr, i32 } %13, 1
  store i32 %15, ptr %6, align 4
  call void @_ZNSt9exceptionD2Ev(ptr noundef nonnull align 8 dereferenceable(8) %7) #12
  br label %16

16:                                               ; preds = %12
  %17 = load ptr, ptr %5, align 8
  %18 = load i32, ptr %6, align 4
  %19 = insertvalue { ptr, i32 } poison, ptr %17, 0
  %20 = insertvalue { ptr, i32 } %19, i32 %18, 1
  resume { ptr, i32 } %20
}